; Function Attrs: mustprogress nofree noinline norecurse nosync nounwind willreturn memory(readwrite, inaccessiblemem: none) uwtable
define internal fastcc void @_ZN13duckdb_brotliL14WrapRingBufferEPNS_24BrotliDecoderStateStructE(ptr noundef captures(none) %0) unnamed_addr #7 {
  %2 = getelementptr inbounds nuw i8, ptr %0, i64 772
  %3 = load i32, ptr %2, align 4
  %4 = and i32 %3, 8
  %.not = icmp eq i32 %4, 0
  br i1 %.not, label %15, label %5

5:                                                ; preds = %1
  %6 = getelementptr inbounds nuw i8, ptr %0, i64 136
  %7 = load ptr, ptr %6, align 8, !tbaa !48
  %8 = getelementptr inbounds nuw i8, ptr %0, i64 144
  %9 = load ptr, ptr %8, align 8, !tbaa !151
  %10 = getelementptr inbounds nuw i8, ptr %0, i64 88
  %11 = load i32, ptr %10, align 8, !tbaa !114
  %12 = sext i32 %11 to i64
  tail call void @llvm.memcpy.p0.p0.i64(ptr align 1 %7, ptr align 1 %9, i64 %12, i1 false)
  %13 = load i32, ptr %2, align 4
  %14 = and i32 %13, -9
  store i32 %14, ptr %2, align 4
  br label %15

15:                                               ; preds = %5, %1
  ret void
}